target datalayout = "e-m:e-p270:32:32-p271:32:32-p272:64:64-i64:64-i128:128-f80:128-n8:16:32:64-S128"
target triple = "x86_64-pc-linux-gnu"

%struct.RelationData = type { %struct.RelFileLocator, ptr, i32, i32, i8, i8, i8, i8, i8, i32, i32, i32, i32, ptr, ptr, i32, %struct.LockInfoData, ptr, ptr, ptr, ptr, ptr, i8, ptr, ptr, ptr, ptr, ptr, ptr, i32, ptr, i8, ptr, ptr, i32, i8, i32, ptr, i8, ptr, ptr, ptr, ptr, ptr, ptr, ptr, i32, ptr, ptr, ptr, ptr, ptr, ptr, ptr, ptr, ptr, ptr, ptr, ptr, ptr, ptr, ptr, ptr, ptr, ptr, ptr, i32, i8, ptr }
%struct.RelFileLocator = type { i32, i32, i32 }
%struct.LockInfoData = type { %struct.LockRelId }
%struct.LockRelId = type { i32, i32 }
%struct.SpGistCache = type { %struct.spgConfigOut, %struct.SpGistTypeDesc, %struct.SpGistTypeDesc, %struct.SpGistTypeDesc, %struct.SpGistTypeDesc, %struct.SpGistLUPCache }
%struct.spgConfigOut = type { i32, i32, i32, i8, i8 }
%struct.SpGistTypeDesc = type { i32, i16, i8, i8, i8 }
%struct.SpGistLUPCache = type { [8 x %struct.SpGistLastUsedPage] }
%struct.SpGistLastUsedPage = type { i32, i32 }
%struct.PageHeaderData = type { %struct.PageXLogRecPtr, i16, i16, i16, i16, i16, i16, i32, [0 x %struct.ItemIdData] }
%struct.PageXLogRecPtr = type { i32, i32 }
%struct.ItemIdData = type { i32 }
%struct.SpGistPageOpaqueData = type { i16, i16, i16, i16 }
%struct.SpGistOptions = type { i32, i32 }

@.str.1 = private unnamed_addr constant [11 x i8] c"spgutils.c\00", align 1
@.str.3 = private unnamed_addr constant [37 x i8] c"desired SPGiST tuple size is too big\00", align 1
@__func__.SpGistGetBuffer = private unnamed_addr constant [16 x i8] c"SpGistGetBuffer\00", align 1
@LocalBufferBlockPointers = external global ptr, align 8
@BufferBlocks = external global ptr, align 8

; Function Attrs: nounwind uwtable
define dso_local void @SpGistInitPage(ptr noundef %0, i16 noundef zeroext %1) #0 {
  %3 = alloca ptr, align 8
  %4 = alloca i16, align 2
  %5 = alloca ptr, align 8
  store ptr %0, ptr %3, align 8
  store i16 %1, ptr %4, align 2
  call void @llvm.lifetime.start.p0(i64 8, ptr %5) #7
  %6 = load ptr, ptr %3, align 8
  call void @PageInit(ptr noundef %6, i64 noundef 8192, i64 noundef 8)
  %7 = load ptr, ptr %3, align 8
  call void @PageValidateSpecialPointer(ptr noundef %7)
  %8 = load ptr, ptr %3, align 8
  %9 = load ptr, ptr %3, align 8
  %10 = getelementptr inbounds nuw %struct.PageHeaderData, ptr %9, i32 0, i32 5
  %11 = load i16, ptr %10, align 4
  %12 = zext i16 %11 to i32
  %13 = sext i32 %12 to i64
  %14 = getelementptr inbounds i8, ptr %8, i64 %13
  store ptr %14, ptr %5, align 8
  %15 = load i16, ptr %4, align 2
  %16 = load ptr, ptr %5, align 8
  %17 = getelementptr inbounds nuw %struct.SpGistPageOpaqueData, ptr %16, i32 0, i32 0
  store i16 %15, ptr %17, align 2
  %18 = load ptr, ptr %5, align 8
  %19 = getelementptr inbounds nuw %struct.SpGistPageOpaqueData, ptr %18, i32 0, i32 3
  store i16 -126, ptr %19, align 2
  call void @llvm.lifetime.end.p0(i64 8, ptr %5) #7
  ret void
}

; Function Attrs: inlinehint nounwind uwtable
define internal ptr @BufferGetBlock(i32 noundef %0) #2 {
  %2 = alloca ptr, align 8
  %3 = alloca i32, align 4
  store i32 %0, ptr %3, align 4
  %4 = load i32, ptr %3, align 4
  %5 = icmp slt i32 %4, 0
  br i1 %5, label %6, label %14

6:                                                ; preds = %1
  %7 = load ptr, ptr @LocalBufferBlockPointers, align 8
  %8 = load i32, ptr %3, align 4
  %9 = sub i32 0, %8
  %10 = sub i32 %9, 1
  %11 = sext i32 %10 to i64
  %12 = getelementptr inbounds ptr, ptr %7, i64 %11
  %13 = load ptr, ptr %12, align 8
  store ptr %13, ptr %2, align 8
  br label %21

14:                                               ; preds = %1
  %15 = load ptr, ptr @BufferBlocks, align 8
  %16 = load i32, ptr %3, align 4
  %17 = sub i32 %16, 1
  %18 = sext i32 %17 to i64
  %19 = mul i64 %18, 8192
  %20 = getelementptr inbounds nuw i8, ptr %15, i64 %19
  store ptr %20, ptr %2, align 8
  br label %21

21:                                               ; preds = %14, %6
  %22 = load ptr, ptr %2, align 8
  ret ptr %22
}

; Function Attrs: nounwind uwtable
define dso_local void @SpGistInitBuffer(i32 noundef %0, i16 noundef zeroext %1) #0 {
  %3 = alloca i32, align 4
  %4 = alloca i16, align 2
  store i32 %0, ptr %3, align 4
  store i16 %1, ptr %4, align 2
  %5 = load i32, ptr %3, align 4
  %6 = call ptr @BufferGetPage(i32 noundef %5)
  %7 = load i16, ptr %4, align 2
  call void @SpGistInitPage(ptr noundef %6, i16 noundef zeroext %7)
  ret void
}

; Function Attrs: inlinehint nounwind uwtable
define internal zeroext i1 @PageIsEmpty(ptr noundef %0) #2 {
  %2 = alloca ptr, align 8
  store ptr %0, ptr %2, align 8
  %3 = load ptr, ptr %2, align 8
  %4 = getelementptr inbounds nuw %struct.PageHeaderData, ptr %3, i32 0, i32 3
  %5 = load i16, ptr %4, align 4
  %6 = zext i16 %5 to i64
  %7 = icmp ule i64 %6, 24
  ret i1 %7
}

; Function Attrs: inlinehint nounwind uwtable
define internal void @PageValidateSpecialPointer(ptr noundef %0) #2 {
  %2 = alloca ptr, align 8
  store ptr %0, ptr %2, align 8
  ret void
}

; Function Attrs: inlinehint nounwind uwtable
define internal zeroext i1 @PageIsNew(ptr noundef %0) #2 {
  %2 = alloca ptr, align 8
  store ptr %0, ptr %2, align 8
  %3 = load ptr, ptr %2, align 8
  %4 = getelementptr inbounds nuw %struct.PageHeaderData, ptr %3, i32 0, i32 4
  %5 = load i16, ptr %4, align 2
  %6 = zext i16 %5 to i32
  %7 = icmp eq i32 %6, 0
  ret i1 %7
}

; Function Attrs: inlinehint nounwind uwtable
define internal ptr @BufferGetPage(i32 noundef %0) #2 {
  %2 = alloca i32, align 4
  store i32 %0, ptr %2, align 4
  %3 = load i32, ptr %2, align 4
  %4 = call ptr @BufferGetBlock(i32 noundef %3)
  ret ptr %4
}

; Function Attrs: nounwind uwtable
define dso_local i32 @SpGistGetBuffer(ptr noundef %0, i32 noundef %1, i32 noundef %2, ptr noundef %3) #0 {
  %5 = alloca i32, align 4
  %6 = alloca ptr, align 8
  %7 = alloca i32, align 4
  %8 = alloca i32, align 4
  %9 = alloca ptr, align 8
  %10 = alloca ptr, align 8
  %11 = alloca ptr, align 8
  %12 = alloca i32, align 4
  %13 = alloca i32, align 4
  %14 = alloca ptr, align 8
  %15 = alloca i16, align 2
  %16 = alloca i32, align 4
  store ptr %0, ptr %6, align 8
  store i32 %1, ptr %7, align 4
  store i32 %2, ptr %8, align 4
  store ptr %3, ptr %9, align 8
  call void @llvm.lifetime.start.p0(i64 8, ptr %10) #7
  %17 = load ptr, ptr %6, align 8
  %18 = call ptr @spgGetCache(ptr noundef %17)
  store ptr %18, ptr %10, align 8
  call void @llvm.lifetime.start.p0(i64 8, ptr %11) #7
  %19 = load i32, ptr %8, align 4
  %20 = sext i32 %19 to i64
  %21 = icmp ugt i64 %20, 8160
  br i1 %21, label %22, label %33

22:                                               ; preds = %4
  br label %23

23:                                               ; preds = %22
  br i1 true, label %24, label %26

24:                                               ; preds = %23
  %25 = call zeroext i1 @errstart_cold(i32 noundef 21, ptr noundef null) #8
  br i1 %25, label %28, label %30

26:                                               ; preds = %23
  %27 = call zeroext i1 @errstart(i32 noundef 21, ptr noundef null)
  br i1 %27, label %28, label %30

28:                                               ; preds = %26, %24
  %29 = call i32 (ptr, ...) @errmsg_internal(ptr noundef @.str.3)
  call void @errfinish(ptr noundef @.str.1, i32 noundef 573, ptr noundef @__func__.SpGistGetBuffer)
  br label %30

30:                                               ; preds = %28, %26, %24
  unreachable

31:                                               ; No predecessors!
  br label %32

32:                                               ; preds = %31
  br label %33

33:                                               ; preds = %32, %4
  %34 = load ptr, ptr %6, align 8
  %35 = getelementptr inbounds nuw %struct.RelationData, ptr %34, i32 0, i32 45
  %36 = load ptr, ptr %35, align 8
  %37 = icmp ne ptr %36, null
  br i1 %37, label %38, label %44

38:                                               ; preds = %33
  %39 = load ptr, ptr %6, align 8
  %40 = getelementptr inbounds nuw %struct.RelationData, ptr %39, i32 0, i32 45
  %41 = load ptr, ptr %40, align 8
  %42 = getelementptr inbounds nuw %struct.SpGistOptions, ptr %41, i32 0, i32 1
  %43 = load i32, ptr %42, align 4
  br label %45

44:                                               ; preds = %33
  br label %45

45:                                               ; preds = %44, %38
  %46 = phi i32 [ %43, %38 ], [ 80, %44 ]
  %47 = sub i32 100, %46
  %48 = mul i32 8192, %47
  %49 = sdiv i32 %48, 100
  %50 = load i32, ptr %8, align 4
  %51 = add i32 %50, %49
  store i32 %51, ptr %8, align 4
  %52 = load i32, ptr %8, align 4
  %53 = sext i32 %52 to i64
  %54 = icmp ult i64 %53, 8160
  br i1 %54, label %55, label %58

55:                                               ; preds = %45
  %56 = load i32, ptr %8, align 4
  %57 = sext i32 %56 to i64
  br label %59

58:                                               ; preds = %45
  br label %59

59:                                               ; preds = %58, %55
  %60 = phi i64 [ %57, %55 ], [ 8160, %58 ]
  %61 = trunc i64 %60 to i32
  store i32 %61, ptr %8, align 4
  %62 = load ptr, ptr %10, align 8
  %63 = getelementptr inbounds nuw %struct.SpGistCache, ptr %62, i32 0, i32 5
  %64 = getelementptr inbounds nuw %struct.SpGistLUPCache, ptr %63, i32 0, i32 0
  %65 = load i32, ptr %7, align 4
  %66 = urem i32 %65, 8
  %67 = zext i32 %66 to i64
  %68 = getelementptr inbounds nuw [8 x %struct.SpGistLastUsedPage], ptr %64, i64 0, i64 %67
  store ptr %68, ptr %11, align 8
  %69 = load ptr, ptr %11, align 8
  %70 = getelementptr inbounds nuw %struct.SpGistLastUsedPage, ptr %69, i32 0, i32 0
  %71 = load i32, ptr %70, align 4
  %72 = icmp eq i32 %71, -1
  br i1 %72, label %73, label %78

73:                                               ; preds = %59
  %74 = load ptr, ptr %9, align 8
  store i8 1, ptr %74, align 1
  %75 = load ptr, ptr %6, align 8
  %76 = load i32, ptr %7, align 4
  %77 = call i32 @allocNewBuffer(ptr noundef %75, i32 noundef %76)
  store i32 %77, ptr %5, align 4
  store i32 1, ptr %12, align 4
  br label %244

78:                                               ; preds = %59
  %79 = load ptr, ptr %11, align 8
  %80 = getelementptr inbounds nuw %struct.SpGistLastUsedPage, ptr %79, i32 0, i32 1
  %81 = load i32, ptr %80, align 4
  %82 = load i32, ptr %8, align 4
  %83 = icmp sge i32 %81, %82
  br i1 %83, label %84, label %239

84:                                               ; preds = %78
  call void @llvm.lifetime.start.p0(i64 4, ptr %13) #7
  call void @llvm.lifetime.start.p0(i64 8, ptr %14) #7
  %85 = load ptr, ptr %6, align 8
  %86 = load ptr, ptr %11, align 8
  %87 = getelementptr inbounds nuw %struct.SpGistLastUsedPage, ptr %86, i32 0, i32 0
  %88 = load i32, ptr %87, align 4
  %89 = call i32 @ReadBuffer(ptr noundef %85, i32 noundef %88)
  store i32 %89, ptr %13, align 4
  %90 = load i32, ptr %13, align 4
  %91 = call zeroext i1 @ConditionalLockBuffer(i32 noundef %90)
  br i1 %91, label %98, label %92

92:                                               ; preds = %84
  %93 = load i32, ptr %13, align 4
  call void @ReleaseBuffer(i32 noundef %93)
  %94 = load ptr, ptr %9, align 8
  store i8 1, ptr %94, align 1
  %95 = load ptr, ptr %6, align 8
  %96 = load i32, ptr %7, align 4
  %97 = call i32 @allocNewBuffer(ptr noundef %95, i32 noundef %96)
  store i32 %97, ptr %5, align 4
  store i32 1, ptr %12, align 4
  br label %236

98:                                               ; preds = %84
  %99 = load i32, ptr %13, align 4
  %100 = call ptr @BufferGetPage(i32 noundef %99)
  store ptr %100, ptr %14, align 8
  %101 = load ptr, ptr %14, align 8
  %102 = call zeroext i1 @PageIsNew(ptr noundef %101)
  br i1 %102, label %120, label %103

103:                                              ; preds = %98
  %104 = load ptr, ptr %14, align 8
  call void @PageValidateSpecialPointer(ptr noundef %104)
  %105 = load ptr, ptr %14, align 8
  %106 = load ptr, ptr %14, align 8
  %107 = getelementptr inbounds nuw %struct.PageHeaderData, ptr %106, i32 0, i32 5
  %108 = load i16, ptr %107, align 4
  %109 = zext i16 %108 to i32
  %110 = sext i32 %109 to i64
  %111 = getelementptr inbounds i8, ptr %105, i64 %110
  %112 = getelementptr inbounds nuw %struct.SpGistPageOpaqueData, ptr %111, i32 0, i32 0
  %113 = load i16, ptr %112, align 2
  %114 = zext i16 %113 to i32
  %115 = and i32 %114, 2
  %116 = icmp ne i32 %115, 0
  br i1 %116, label %120, label %117

117:                                              ; preds = %103
  %118 = load ptr, ptr %14, align 8
  %119 = call zeroext i1 @PageIsEmpty(ptr noundef %118)
  br i1 %119, label %120, label %151

120:                                              ; preds = %117, %103, %98
  call void @llvm.lifetime.start.p0(i64 2, ptr %15) #7
  store i16 0, ptr %15, align 2
  %121 = load i32, ptr %7, align 4
  %122 = and i32 %121, 3
  %123 = icmp eq i32 %122, 3
  br i1 %123, label %124, label %129

124:                                              ; preds = %120
  %125 = load i16, ptr %15, align 2
  %126 = zext i16 %125 to i32
  %127 = or i32 %126, 4
  %128 = trunc i32 %127 to i16
  store i16 %128, ptr %15, align 2
  br label %129

129:                                              ; preds = %124, %120
  %130 = load i32, ptr %7, align 4
  %131 = and i32 %130, 4
  %132 = icmp ne i32 %131, 0
  br i1 %132, label %133, label %138

133:                                              ; preds = %129
  %134 = load i16, ptr %15, align 2
  %135 = zext i16 %134 to i32
  %136 = or i32 %135, 8
  %137 = trunc i32 %136 to i16
  store i16 %137, ptr %15, align 2
  br label %138

138:                                              ; preds = %133, %129
  %139 = load i32, ptr %13, align 4
  %140 = load i16, ptr %15, align 2
  call void @SpGistInitBuffer(i32 noundef %139, i16 noundef zeroext %140)
  %141 = load ptr, ptr %14, align 8
  %142 = call i64 @PageGetExactFreeSpace(ptr noundef %141)
  %143 = load i32, ptr %8, align 4
  %144 = sext i32 %143 to i64
  %145 = sub i64 %142, %144
  %146 = trunc i64 %145 to i32
  %147 = load ptr, ptr %11, align 8
  %148 = getelementptr inbounds nuw %struct.SpGistLastUsedPage, ptr %147, i32 0, i32 1
  store i32 %146, ptr %148, align 4
  %149 = load ptr, ptr %9, align 8
  store i8 1, ptr %149, align 1
  %150 = load i32, ptr %13, align 4
  store i32 %150, ptr %5, align 4
  store i32 1, ptr %12, align 4
  call void @llvm.lifetime.end.p0(i64 2, ptr %15) #7
  br label %236

151:                                              ; preds = %117
  %152 = load i32, ptr %7, align 4
  %153 = and i32 %152, 3
  %154 = icmp eq i32 %153, 3
  br i1 %154, label %155, label %169

155:                                              ; preds = %151
  %156 = load ptr, ptr %14, align 8
  call void @PageValidateSpecialPointer(ptr noundef %156)
  %157 = load ptr, ptr %14, align 8
  %158 = load ptr, ptr %14, align 8
  %159 = getelementptr inbounds nuw %struct.PageHeaderData, ptr %158, i32 0, i32 5
  %160 = load i16, ptr %159, align 4
  %161 = zext i16 %160 to i32
  %162 = sext i32 %161 to i64
  %163 = getelementptr inbounds i8, ptr %157, i64 %162
  %164 = getelementptr inbounds nuw %struct.SpGistPageOpaqueData, ptr %163, i32 0, i32 0
  %165 = load i16, ptr %164, align 2
  %166 = zext i16 %165 to i32
  %167 = and i32 %166, 4
  %168 = icmp ne i32 %167, 0
  br i1 %168, label %183, label %234

169:                                              ; preds = %151
  %170 = load ptr, ptr %14, align 8
  call void @PageValidateSpecialPointer(ptr noundef %170)
  %171 = load ptr, ptr %14, align 8
  %172 = load ptr, ptr %14, align 8
  %173 = getelementptr inbounds nuw %struct.PageHeaderData, ptr %172, i32 0, i32 5
  %174 = load i16, ptr %173, align 4
  %175 = zext i16 %174 to i32
  %176 = sext i32 %175 to i64
  %177 = getelementptr inbounds i8, ptr %171, i64 %176
  %178 = getelementptr inbounds nuw %struct.SpGistPageOpaqueData, ptr %177, i32 0, i32 0
  %179 = load i16, ptr %178, align 2
  %180 = zext i16 %179 to i32
  %181 = and i32 %180, 4
  %182 = icmp ne i32 %181, 0
  br i1 %182, label %234, label %183

183:                                              ; preds = %169, %155
  %184 = load i32, ptr %7, align 4
  %185 = and i32 %184, 4
  %186 = icmp ne i32 %185, 0
  br i1 %186, label %187, label %201

187:                                              ; preds = %183
  %188 = load ptr, ptr %14, align 8
  call void @PageValidateSpecialPointer(ptr noundef %188)
  %189 = load ptr, ptr %14, align 8
  %190 = load ptr, ptr %14, align 8
  %191 = getelementptr inbounds nuw %struct.PageHeaderData, ptr %190, i32 0, i32 5
  %192 = load i16, ptr %191, align 4
  %193 = zext i16 %192 to i32
  %194 = sext i32 %193 to i64
  %195 = getelementptr inbounds i8, ptr %189, i64 %194
  %196 = getelementptr inbounds nuw %struct.SpGistPageOpaqueData, ptr %195, i32 0, i32 0
  %197 = load i16, ptr %196, align 2
  %198 = zext i16 %197 to i32
  %199 = and i32 %198, 8
  %200 = icmp ne i32 %199, 0
  br i1 %200, label %215, label %234

201:                                              ; preds = %183
  %202 = load ptr, ptr %14, align 8
  call void @PageValidateSpecialPointer(ptr noundef %202)
  %203 = load ptr, ptr %14, align 8
  %204 = load ptr, ptr %14, align 8
  %205 = getelementptr inbounds nuw %struct.PageHeaderData, ptr %204, i32 0, i32 5
  %206 = load i16, ptr %205, align 4
  %207 = zext i16 %206 to i32
  %208 = sext i32 %207 to i64
  %209 = getelementptr inbounds i8, ptr %203, i64 %208
  %210 = getelementptr inbounds nuw %struct.SpGistPageOpaqueData, ptr %209, i32 0, i32 0
  %211 = load i16, ptr %210, align 2
  %212 = zext i16 %211 to i32
  %213 = and i32 %212, 8
  %214 = icmp ne i32 %213, 0
  br i1 %214, label %234, label %215

215:                                              ; preds = %201, %187
  call void @llvm.lifetime.start.p0(i64 4, ptr %16) #7
  %216 = load ptr, ptr %14, align 8
  %217 = call i64 @PageGetExactFreeSpace(ptr noundef %216)
  %218 = trunc i64 %217 to i32
  store i32 %218, ptr %16, align 4
  %219 = load i32, ptr %16, align 4
  %220 = load i32, ptr %8, align 4
  %221 = icmp sge i32 %219, %220
  br i1 %221, label %222, label %230

222:                                              ; preds = %215
  %223 = load i32, ptr %16, align 4
  %224 = load i32, ptr %8, align 4
  %225 = sub i32 %223, %224
  %226 = load ptr, ptr %11, align 8
  %227 = getelementptr inbounds nuw %struct.SpGistLastUsedPage, ptr %226, i32 0, i32 1
  store i32 %225, ptr %227, align 4
  %228 = load ptr, ptr %9, align 8
  store i8 0, ptr %228, align 1
  %229 = load i32, ptr %13, align 4
  store i32 %229, ptr %5, align 4
  store i32 1, ptr %12, align 4
  br label %231

230:                                              ; preds = %215
  store i32 0, ptr %12, align 4
  br label %231

231:                                              ; preds = %230, %222
  call void @llvm.lifetime.end.p0(i64 4, ptr %16) #7
  %232 = load i32, ptr %12, align 4
  switch i32 %232, label %236 [
    i32 0, label %233
  ]

233:                                              ; preds = %231
  br label %234

234:                                              ; preds = %233, %201, %187, %169, %155
  %235 = load i32, ptr %13, align 4
  call void @UnlockReleaseBuffer(i32 noundef %235)
  store i32 0, ptr %12, align 4
  br label %236

236:                                              ; preds = %234, %231, %138, %92
  call void @llvm.lifetime.end.p0(i64 8, ptr %14) #7
  call void @llvm.lifetime.end.p0(i64 4, ptr %13) #7
  %237 = load i32, ptr %12, align 4
  switch i32 %237, label %244 [
    i32 0, label %238
  ]

238:                                              ; preds = %236
  br label %239

239:                                              ; preds = %238, %78
  %240 = load ptr, ptr %9, align 8
  store i8 1, ptr %240, align 1
  %241 = load ptr, ptr %6, align 8
  %242 = load i32, ptr %7, align 4
  %243 = call i32 @allocNewBuffer(ptr noundef %241, i32 noundef %242)
  store i32 %243, ptr %5, align 4
  store i32 1, ptr %12, align 4
  br label %244

244:                                              ; preds = %239, %236, %73
  call void @llvm.lifetime.end.p0(i64 8, ptr %11) #7
  call void @llvm.lifetime.end.p0(i64 8, ptr %10) #7
  %245 = load i32, ptr %5, align 4
  ret i32 %245
}