; Function Attrs: nounwind uwtable
define dso_local i32 @SpGistGetBuffer(ptr noundef %0, i32 noundef %1, i32 noundef %2, ptr noundef writeonly captures(none) %3) local_unnamed_addr #0 {
  %5 = tail call ptr @spgGetCache(ptr noundef %0)
  %6 = icmp ugt i32 %2, 8160
  br i1 %6, label %7, label %10

7:                                                ; preds = %4
  %8 = tail call zeroext i1 @errstart_cold(i32 noundef 21, ptr noundef null) #11
  tail call void @llvm.assume(i1 %8)
  %9 = tail call i32 (ptr, ...) @errmsg_internal(ptr noundef nonnull @.str.3) #10
  tail call void @errfinish(ptr noundef nonnull @.str.1, i32 noundef 573, ptr noundef nonnull @__func__.SpGistGetBuffer) #10
  unreachable

10:                                               ; preds = %4
  %11 = getelementptr inbounds nuw i8, ptr %0, i64 304
  %12 = load ptr, ptr %11, align 8
  %.not = icmp eq ptr %12, null
  br i1 %.not, label %19, label %13

13:                                               ; preds = %10
  %14 = getelementptr inbounds nuw i8, ptr %12, i64 4
  %15 = load i32, ptr %14, align 4
  %16 = shl i32 %15, 13
  %17 = sub i32 819200, %16
  %18 = sdiv i32 %17, 100
  br label %19

19:                                               ; preds = %10, %13
  %20 = phi i32 [ %18, %13 ], [ 1638, %10 ]
  %21 = add nsw i32 %20, %2
  %22 = tail call i32 @llvm.umin.i32(i32 %21, i32 8160)
  %23 = getelementptr inbounds nuw i8, ptr %5, i64 64
  %24 = and i32 %1, 7
  %25 = zext nneg i32 %24 to i64
  %26 = getelementptr inbounds nuw [8 x %struct.SpGistLastUsedPage], ptr %23, i64 0, i64 %25
  %27 = load i32, ptr %26, align 4
  %28 = icmp eq i32 %27, -1
  br i1 %28, label %29, label %31

29:                                               ; preds = %19
  store i8 1, ptr %3, align 1
  %30 = tail call fastcc i32 @allocNewBuffer(ptr noundef nonnull %0, i32 noundef %1)
  br label %.thread

31:                                               ; preds = %19
  %32 = getelementptr inbounds nuw i8, ptr %26, i64 4
  %33 = load i32, ptr %32, align 4
  %.not76 = icmp slt i32 %33, %22
  br i1 %.not76, label %106, label %34

34:                                               ; preds = %31
  %35 = tail call i32 @ReadBuffer(ptr noundef nonnull %0, i32 noundef %27) #10
  %36 = tail call zeroext i1 @ConditionalLockBuffer(i32 noundef %35) #10
  br i1 %36, label %39, label %37

37:                                               ; preds = %34
  tail call void @ReleaseBuffer(i32 noundef %35) #10
  store i8 1, ptr %3, align 1
  %38 = tail call fastcc i32 @allocNewBuffer(ptr noundef nonnull %0, i32 noundef %1)
  br label %.thread

39:                                               ; preds = %34
  %40 = icmp slt i32 %35, 0
  br i1 %40, label %41, label %47

41:                                               ; preds = %39
  %42 = load ptr, ptr @LocalBufferBlockPointers, align 8
  %43 = xor i32 %35, -1
  %44 = zext nneg i32 %43 to i64
  %45 = getelementptr inbounds nuw ptr, ptr %42, i64 %44
  %46 = load ptr, ptr %45, align 8
  br label %BufferGetPage.exit

47:                                               ; preds = %39
  %48 = load ptr, ptr @BufferBlocks, align 8
  %49 = add nsw i32 %35, -1
  %50 = sext i32 %49 to i64
  %51 = shl nsw i64 %50, 13
  %52 = getelementptr inbounds nuw i8, ptr %48, i64 %51
  br label %BufferGetPage.exit

BufferGetPage.exit:                               ; preds = %41, %47
  %.0.i.i = phi ptr [ %46, %41 ], [ %52, %47 ]
  %53 = getelementptr i8, ptr %.0.i.i, i64 14
  %.val = load i16, ptr %53, align 2
  %54 = icmp eq i16 %.val, 0
  br i1 %54, label %65, label %55

55:                                               ; preds = %BufferGetPage.exit
  %56 = getelementptr inbounds nuw i8, ptr %.0.i.i, i64 16
  %57 = load i16, ptr %56, align 4
  %58 = zext i16 %57 to i64
  %59 = getelementptr inbounds nuw i8, ptr %.0.i.i, i64 %58
  %60 = load i16, ptr %59, align 2
  %61 = and i16 %60, 2
  %.not77 = icmp eq i16 %61, 0
  br i1 %.not77, label %62, label %65

62:                                               ; preds = %55
  %63 = getelementptr i8, ptr %.0.i.i, i64 12
  %.val85 = load i16, ptr %63, align 4
  %64 = icmp ult i16 %.val85, 25
  br i1 %64, label %65, label %91

65:                                               ; preds = %62, %55, %BufferGetPage.exit
  %66 = and i32 %1, 3
  %67 = icmp eq i32 %66, 3
  %spec.select = select i1 %67, i16 4, i16 0
  %68 = trunc i32 %1 to i16
  %69 = shl i16 %68, 1
  %70 = and i16 %69, 8
  %.169 = or disjoint i16 %spec.select, %70
  br i1 %40, label %71, label %77

71:                                               ; preds = %65
  %72 = load ptr, ptr @LocalBufferBlockPointers, align 8
  %73 = xor i32 %35, -1
  %74 = zext nneg i32 %73 to i64
  %75 = getelementptr inbounds nuw ptr, ptr %72, i64 %74
  %76 = load ptr, ptr %75, align 8
  br label %SpGistInitBuffer.exit

77:                                               ; preds = %65
  %78 = load ptr, ptr @BufferBlocks, align 8
  %79 = add nsw i32 %35, -1
  %80 = sext i32 %79 to i64
  %81 = shl nsw i64 %80, 13
  %82 = getelementptr inbounds nuw i8, ptr %78, i64 %81
  br label %SpGistInitBuffer.exit

SpGistInitBuffer.exit:                            ; preds = %71, %77
  %.0.i.i.i = phi ptr [ %76, %71 ], [ %82, %77 ]
  tail call void @PageInit(ptr noundef %.0.i.i.i, i64 noundef 8192, i64 noundef 8) #10
  %83 = getelementptr inbounds nuw i8, ptr %.0.i.i.i, i64 16
  %84 = load i16, ptr %83, align 4
  %85 = zext i16 %84 to i64
  %86 = getelementptr inbounds nuw i8, ptr %.0.i.i.i, i64 %85
  store i16 %.169, ptr %86, align 2
  %87 = getelementptr inbounds nuw i8, ptr %86, i64 6
  store i16 -126, ptr %87, align 2
  %88 = tail call i64 @PageGetExactFreeSpace(ptr noundef nonnull %.0.i.i) #10
  %89 = trunc i64 %88 to i32
  %90 = sub i32 %89, %22
  store i32 %90, ptr %32, align 4
  store i8 1, ptr %3, align 1
  br label %.thread

91:                                               ; preds = %62
  %92 = and i32 %1, 3
  %93 = icmp eq i32 %92, 3
  %94 = and i16 %60, 4
  %.not79 = icmp eq i16 %94, 0
  %95 = xor i1 %93, %.not79
  br i1 %95, label %96, label %105

96:                                               ; preds = %91
  %97 = and i32 %1, 4
  %.not80 = icmp eq i32 %97, 0
  %98 = and i16 %60, 8
  %.not81 = icmp eq i16 %98, 0
  %99 = xor i1 %.not80, %.not81
  br i1 %99, label %105, label %100

100:                                              ; preds = %96
  %101 = tail call i64 @PageGetExactFreeSpace(ptr noundef nonnull %.0.i.i) #10
  %102 = trunc i64 %101 to i32
  %.not83 = icmp sgt i32 %22, %102
  br i1 %.not83, label %105, label %103

103:                                              ; preds = %100
  %104 = sub nsw i32 %102, %22
  store i32 %104, ptr %32, align 4
  store i8 0, ptr %3, align 1
  br label %.thread

105:                                              ; preds = %96, %91, %100
  tail call void @UnlockReleaseBuffer(i32 noundef %35) #10
  br label %106

106:                                              ; preds = %105, %31
  store i8 1, ptr %3, align 1
  %107 = tail call fastcc i32 @allocNewBuffer(ptr noundef nonnull %0, i32 noundef %1)
  br label %.thread

.thread:                                          ; preds = %37, %103, %SpGistInitBuffer.exit, %106, %29
  %.0 = phi i32 [ %30, %29 ], [ %107, %106 ], [ %38, %37 ], [ %35, %103 ], [ %35, %SpGistInitBuffer.exit ]
  ret i32 %.0
}